(lp0
cnumpy.core.multiarray
scalar
p1
(cnumpy
dtype
p2
(S'f8'
p3
I0
I1
tp4
Rp5
(I3
S'<'
p6
NNNI-1
I-1
I0
tp7
bS'\xa1\\B\xe8EK\xee?'
p8
tp9
Rp10
ag1
(g5
S'/\x87 V6O\xee?'
p11
tp12
Rp13
ag1
(g5
S'Q~\x10\xa8SR\xee?'
p14
tp15
Rp16
ag1
(g5
S'\xae}\xfd\xa8KQ\xee?'
p17
tp18
Rp19
ag1
(g5
S'\xb1\xc5,ExR\xee?'
p20
tp21
Rp22
ag1
(g5
S'R\x1c\x92\xa8rQ\xee?'
p23
tp24
Rp25
ag1
(g5
S't\xf1q\xf2\xedN\xee?'
p26
tp27
Rp28
ag1
(g5
S'/4\x9d:$N\xee?'
p29
tp30
Rp31
ag1
(g5
S'\xe4 \x14\x92\xfaO\xee?'
p32
tp33
Rp34
ag1
(g5
S'\xe1\xf8d\x1apM\xee?'
p35
tp36
Rp37
a.