(lp0
cnumpy.core.multiarray
scalar
p1
(cnumpy
dtype
p2
(S'f8'
p3
I0
I1
tp4
Rp5
(I3
S'<'
p6
NNNI-1
I-1
I0
tp7
bS'l\xc5\xf9\x15j\xa5[@'
p8
tp9
Rp10
ag1
(g5
S'Ra\xefe\x95\x87X@'
p11
tp12
Rp13
ag1
(g5
S'\xeb=\xda\x89>hY@'
p14
tp15
Rp16
ag1
(g5
S'tX/;85Z@'
p17
tp18
Rp19
ag1
(g5
S']@n\x90\x83\xe3X@'
p20
tp21
Rp22
ag1
(g5
S'\xeeu\x87o\xb5\x90Y@'
p23
tp24
Rp25
ag1
(g5
S'\xb5\xd7o\xacd\xb0Z@'
p26
tp27
Rp28
ag1
(g5
S'\xe4&g\xb7\xc2\xa7[@'
p29
tp30
Rp31
ag1
(g5
S'\xe6BY\x96\xa6\xa5Z@'
p32
tp33
Rp34
ag1
(g5
S'\x02\xfb\x0cH\xe1\x85X@'
p35
tp36
Rp37
a.