(lp0
cnumpy.core.multiarray
_reconstruct
p1
(cnumpy
ndarray
p2
(I0
tp3
S'b'
p4
tp5
Rp6
(I1
(L1L
L2L
tp7
cnumpy
dtype
p8
(S'f8'
p9
I0
I1
tp10
Rp11
(I3
S'<'
p12
NNNI-1
I-1
I0
tp13
bI00
S'\x1b\xdd]\xc3U\x9fL@\xbf\x06\xac!\xf4(X@'
p14
tp15
bag1
(g2
(I0
tp16
g4
tp17
Rp18
(I1
(L1L
L2L
tp19
g11
I00
S'\xef\xc4\x02\xdc\x07\x8aL@\xea\x87hj\x15.X@'
p20
tp21
bag1
(g2
(I0
tp22
g4
tp23
Rp24
(I1
(L1L
L2L
tp25
g11
I00
S'j\xfd\x92\x13"\xd6L@Y\xbc\xe1\xba\xbd?X@'
p26
tp27
bag1
(g2
(I0
tp28
g4
tp29
Rp30
(I1
(L1L
L2L
tp31
g11
I00
S'\x1f\xf4\x8b"\xaa\x9eL@\x8e]V\xe4\xbc\x1eX@'
p32
tp33
bag1
(g2
(I0
tp34
g4
tp35
Rp36
(I1
(L1L
L2L
tp37
g11
I00
S'"\x19om\xebaL@\x1d\xaeV\x11\x91\x17X@'
p38
tp39
bag1
(g2
(I0
tp40
g4
tp41
Rp42
(I1
(L1L
L2L
tp43
g11
I00
S'~[_\x06\xcf\xc4L@\xfa$\x11\xb4B;X@'
p44
tp45
bag1
(g2
(I0
tp46
g4
tp47
Rp48
(I1
(L1L
L2L
tp49
g11
I00
S'%\tk8\xfe\xacL@`\\\x0c\xf7\xb0FX@'
p50
tp51
bag1
(g2
(I0
tp52
g4
tp53
Rp54
(I1
(L1L
L2L
tp55
g11
I00
S'\xa2\x02\xc2r/\x94L@\xa7S\x8eG\x9d\x15X@'
p56
tp57
bag1
(g2
(I0
tp58
g4
tp59
Rp60
(I1
(L1L
L2L
tp61
g11
I00
S'\xf9.Z\xfd\x91\x8aL@\xbd\x13,^\x876X@'
p62
tp63
bag1
(g2
(I0
tp64
g4
tp65
Rp66
(I1
(L1L
L2L
tp67
g11
I00
S'q\xda\xb8g:\xd0L@a\xc7\xe1s\xd97X@'
p68
tp69
ba.