(lp0
cnumpy.core.multiarray
_reconstruct
p1
(cnumpy
ndarray
p2
(I0
tp3
S'b'
p4
tp5
Rp6
(I1
(L1L
L2L
tp7
cnumpy
dtype
p8
(S'f8'
p9
I0
I1
tp10
Rp11
(I3
S'<'
p12
NNNI-1
I-1
I0
tp13
bI00
S'9\xbc\x13\x8d\xc0{S@\xfee\x8f9\xf2BO@'
p14
tp15
bag1
(g2
(I0
tp16
g4
tp17
Rp18
(I1
(L1L
L2L
tp19
g11
I00
S'\xbcR\x91F\x1ewS@g\xcb\x93\x1b\x89BO@'
p20
tp21
bag1
(g2
(I0
tp22
g4
tp23
Rp24
(I1
(L1L
L2L
tp25
g11
I00
S'/\xf8\xce$\xe6}S@L\xe5"\x14\xa4>O@'
p26
tp27
bag1
(g2
(I0
tp28
g4
tp29
Rp30
(I1
(L1L
L2L
tp31
g11
I00
S't\xb9\x11\x82|\x83S@\x8b\x19y\x81NLO@'
p32
tp33
bag1
(g2
(I0
tp34
g4
tp35
Rp36
(I1
(L1L
L2L
tp37
g11
I00
S'\xd8\xdc6\xfd\xe2{S@\xb7c\xf9\xba*:O@'
p38
tp39
bag1
(g2
(I0
tp40
g4
tp41
Rp42
(I1
(L1L
L2L
tp43
g11
I00
S'\xd4\xbc\x94\x86\x17\x7fS@\xd4\xe1L\xa2\xab7O@'
p44
tp45
bag1
(g2
(I0
tp46
g4
tp47
Rp48
(I1
(L1L
L2L
tp49
g11
I00
S'\xad\x88$\x93\x92tS@S\xfcX\xa8\x0fMO@'
p50
tp51
bag1
(g2
(I0
tp52
g4
tp53
Rp54
(I1
(L1L
L2L
tp55
g11
I00
S'\xf9\xc7K\x00\xc8uS@\xfb\x8d)\xee\xffIO@'
p56
tp57
bag1
(g2
(I0
tp58
g4
tp59
Rp60
(I1
(L1L
L2L
tp61
g11
I00
S'\xe1,<\xfeD\x82S@\x9f,\x99\x14\xabCO@'
p62
tp63
bag1
(g2
(I0
tp64
g4
tp65
Rp66
(I1
(L1L
L2L
tp67
g11
I00
S'\x98\xa7\xce\xe8F}S@>UC\xbc\xb9=O@'
p68
tp69
ba.