(lp0
cnumpy.core.multiarray
_reconstruct
p1
(cnumpy
ndarray
p2
(I0
tp3
S'b'
p4
tp5
Rp6
(I1
(L1L
L2L
tp7
cnumpy
dtype
p8
(S'f8'
p9
I0
I1
tp10
Rp11
(I3
S'<'
p12
NNNI-1
I-1
I0
tp13
bI00
S'\xd9\xf7#\x17)\xf1.@\xb2E\x83\xd2\x1d\xacC@'
p14
tp15
bag1
(g2
(I0
tp16
g4
tp17
Rp18
(I1
(L1L
L2L
tp19
g11
I00
S'\xaa\x9d\xe9\xca\xb3\xe20@\xf4\xd2\x0c\xc6\x9c\x0eB@'
p20
tp21
bag1
(g2
(I0
tp22
g4
tp23
Rp24
(I1
(L1L
L2L
tp25
g11
I00
S's\xf0me4y/@\xc2U2\xaa\xf3\x07C@'
p26
tp27
bag1
(g2
(I0
tp28
g4
tp29
Rp30
(I1
(L1L
L2L
tp31
g11
I00
S'\xa7wbw\x05\xe80@q1K.;}C@'
p32
tp33
bag1
(g2
(I0
tp34
g4
tp35
Rp36
(I1
(L1L
L2L
tp37
g11
I00
S'\xcd\x93\xeaJ\xddR-@MT:\xd0<RC@'
p38
tp39
bag1
(g2
(I0
tp40
g4
tp41
Rp42
(I1
(L1L
L2L
tp43
g11
I00
S'\xde\xb9\xeb\\\xbd\xe1-@\xc0\xe7y\x19\xc2\xd5C@'
p44
tp45
bag1
(g2
(I0
tp46
g4
tp47
Rp48
(I1
(L1L
L2L
tp49
g11
I00
S'\xce\x06\xa5Z}\xdd1@\x83\rmG:\xcb@@'
p50
tp51
bag1
(g2
(I0
tp52
g4
tp53
Rp54
(I1
(L1L
L2L
tp55
g11
I00
S'\xe0\xaek/\x15\x085@\xc2\xdd\x94W\xc2:A@'
p56
tp57
bag1
(g2
(I0
tp58
g4
tp59
Rp60
(I1
(L1L
L2L
tp61
g11
I00
S'(Iw\x8e\xea_/@/\xe2g\xc3Y\x0cD@'
p62
tp63
bag1
(g2
(I0
tp64
g4
tp65
Rp66
(I1
(L1L
L2L
tp67
g11
I00
S'\xcdyf:g\x81*@$\xc6{\xc1\xb1\x91B@'
p68
tp69
ba.