(lp0
ccopy_reg
_reconstructor
p1
(cpandas.core.series
Series
p2
c__builtin__
object
p3
Ntp4
Rp5
(dp6
S'_metadata'
p7
(lp8
S'name'
p9
asS'_data'
p10
g1
(cpandas.core.internals
SingleBlockManager
p11
g3
Ntp12
Rp13
((lp14
cpandas.indexes.base
_new_Index
p15
(cpandas.indexes.base
Index
p16
(dp17
S'data'
p18
cnumpy.core.multiarray
_reconstruct
p19
(cnumpy
ndarray
p20
(I0
tp21
S'b'
p22
tp23
Rp24
(I1
(L1L
tp25
cnumpy
dtype
p26
(S'O8'
p27
I0
I1
tp28
Rp29
(I3
S'|'
p30
NNNI-1
I-1
I63
tp31
bI00
(lp32
S'Dep'
p33
atp34
bsg9
Nstp35
Rp36
a(lp37
g19
(g20
(I0
tp38
g22
tp39
Rp40
(I1
(L1L
tp41
g26
(S'f8'
p42
I0
I1
tp43
Rp44
(I3
S'<'
p45
NNNI-1
I-1
I0
tp46
bI00
S'\xdb\xb6m\xdb\xf2\x87\xa5:'
p47
tp48
ba(lp49
g15
(g16
(dp50
g18
g19
(g20
(I0
tp51
g22
tp52
Rp53
(I1
(L1L
tp54
g29
I00
(lp55
g33
atp56
bsg9
Nstp57
Rp58
a(dp59
S'0.14.1'
p60
(dp61
S'axes'
p62
g14
sS'blocks'
p63
(lp64
(dp65
S'mgr_locs'
p66
c__builtin__
slice
p67
(I0
I1
I1
tp68
Rp69
sS'values'
p70
g40
sasstp71
bsS'_typ'
p72
S'series'
p73
sg9
Nsbag1
(g2
g3
Ntp74
Rp75
(dp76
g7
g8
sg10
g1
(g11
g3
Ntp77
Rp78
((lp79
g15
(g16
(dp80
g18
g19
(g20
(I0
tp81
g22
tp82
Rp83
(I1
(L1L
tp84
g29
I00
(lp85
g33
atp86
bsg9
Nstp87
Rp88
a(lp89
g19
(g20
(I0
tp90
g22
tp91
Rp92
(I1
(L1L
tp93
g44
I00
S'{\t\xed\xa5)\xdd\xbd:'
p94
tp95
ba(lp96
g15
(g16
(dp97
g18
g19
(g20
(I0
tp98
g22
tp99
Rp100
(I1
(L1L
tp101
g29
I00
(lp102
g33
atp103
bsg9
Nstp104
Rp105
a(dp106
g60
(dp107
g62
g79
sg63
(lp108
(dp109
g66
g67
(I0
I1
I1
tp110
Rp111
sg70
g92
sasstp112
bsg72
g73
sg9
Nsbag1
(g2
g3
Ntp113
Rp114
(dp115
g7
g8
sg10
g1
(g11
g3
Ntp116
Rp117
((lp118
g15
(g16
(dp119
g18
g19
(g20
(I0
tp120
g22
tp121
Rp122
(I1
(L1L
tp123
g29
I00
(lp124
g33
atp125
bsg9
Nstp126
Rp127
a(lp128
g19
(g20
(I0
tp129
g22
tp130
Rp131
(I1
(L1L
tp132
g44
I00
S'\x9a\x99\x99\x99YX\xb0:'
p133
tp134
ba(lp135
g15
(g16
(dp136
g18
g19
(g20
(I0
tp137
g22
tp138
Rp139
(I1
(L1L
tp140
g29
I00
(lp141
g33
atp142
bsg9
Nstp143
Rp144
a(dp145
g60
(dp146
g62
g118
sg63
(lp147
(dp148
g66
g67
(I0
I1
I1
tp149
Rp150
sg70
g131
sasstp151
bsg72
g73
sg9
Nsbag1
(g2
g3
Ntp152
Rp153
(dp154
g7
g8
sg10
g1
(g11
g3
Ntp155
Rp156
((lp157
g15
(g16
(dp158
g18
g19
(g20
(I0
tp159
g22
tp160
Rp161
(I1
(L1L
tp162
g29
I00
(lp163
g33
atp164
bsg9
Nstp165
Rp166
a(lp167
g19
(g20
(I0
tp168
g22
tp169
Rp170
(I1
(L1L
tp171
g44
I00
S'\xc8S\x82<\xa4\xda\xb5:'
p172
tp173
ba(lp174
g15
(g16
(dp175
g18
g19
(g20
(I0
tp176
g22
tp177
Rp178
(I1
(L1L
tp179
g29
I00
(lp180
g33
atp181
bsg9
Nstp182
Rp183
a(dp184
g60
(dp185
g62
g157
sg63
(lp186
(dp187
g66
g67
(I0
I1
I1
tp188
Rp189
sg70
g170
sasstp190
bsg72
g73
sg9
Nsbag1
(g2
g3
Ntp191
Rp192
(dp193
g7
g8
sg10
g1
(g11
g3
Ntp194
Rp195
((lp196
g15
(g16
(dp197
g18
g19
(g20
(I0
tp198
g22
tp199
Rp200
(I1
(L1L
tp201
g29
I00
(lp202
g33
atp203
bsg9
Nstp204
Rp205
a(lp206
g19
(g20
(I0
tp207
g22
tp208
Rp209
(I1
(L1L
tp210
g44
I00
S'\xd3\xd2\xd2\xd2\xe5e\xbc:'
p211
tp212
ba(lp213
g15
(g16
(dp214
g18
g19
(g20
(I0
tp215
g22
tp216
Rp217
(I1
(L1L
tp218
g29
I00
(lp219
g33
atp220
bsg9
Nstp221
Rp222
a(dp223
g60
(dp224
g62
g196
sg63
(lp225
(dp226
g66
g67
(I0
I1
I1
tp227
Rp228
sg70
g209
sasstp229
bsg72
g73
sg9
Nsbag1
(g2
g3
Ntp230
Rp231
(dp232
g7
g8
sg10
g1
(g11
g3
Ntp233
Rp234
((lp235
g15
(g16
(dp236
g18
g19
(g20
(I0
tp237
g22
tp238
Rp239
(I1
(L1L
tp240
g29
I00
(lp241
g33
atp242
bsg9
Nstp243
Rp244
a(lp245
g19
(g20
(I0
tp246
g22
tp247
Rp248
(I1
(L1L
tp249
g44
I00
S'\x8c.\xba\xa8\x11*\xb8:'
p250
tp251
ba(lp252
g15
(g16
(dp253
g18
g19
(g20
(I0
tp254
g22
tp255
Rp256
(I1
(L1L
tp257
g29
I00
(lp258
g33
atp259
bsg9
Nstp260
Rp261
a(dp262
g60
(dp263
g62
g235
sg63
(lp264
(dp265
g66
g67
(I0
I1
I1
tp266
Rp267
sg70
g248
sasstp268
bsg72
g73
sg9
Nsbag1
(g2
g3
Ntp269
Rp270
(dp271
g7
g8
sg10
g1
(g11
g3
Ntp272
Rp273
((lp274
g15
(g16
(dp275
g18
g19
(g20
(I0
tp276
g22
tp277
Rp278
(I1
(L1L
tp279
g29
I00
(lp280
g33
atp281
bsg9
Nstp282
Rp283
a(lp284
g19
(g20
(I0
tp285
g22
tp286
Rp287
(I1
(L1L
tp288
g44
I00
S'9\x05/\xa7(\x9f\xcf:'
p289
tp290
ba(lp291
g15
(g16
(dp292
g18
g19
(g20
(I0
tp293
g22
tp294
Rp295
(I1
(L1L
tp296
g29
I00
(lp297
g33
atp298
bsg9
Nstp299
Rp300
a(dp301
g60
(dp302
g62
g274
sg63
(lp303
(dp304
g66
g67
(I0
I1
I1
tp305
Rp306
sg70
g287
sasstp307
bsg72
g73
sg9
Nsbag1
(g2
g3
Ntp308
Rp309
(dp310
g7
g8
sg10
g1
(g11
g3
Ntp311
Rp312
((lp313
g15
(g16
(dp314
g18
g19
(g20
(I0
tp315
g22
tp316
Rp317
(I1
(L1L
tp318
g29
I00
(lp319
g33
atp320
bsg9
Nstp321
Rp322
a(lp323
g19
(g20
(I0
tp324
g22
tp325
Rp326
(I1
(L1L
tp327
g44
I00
S'\xbfa\xed\x1b\xf4g\xa5:'
p328
tp329
ba(lp330
g15
(g16
(dp331
g18
g19
(g20
(I0
tp332
g22
tp333
Rp334
(I1
(L1L
tp335
g29
I00
(lp336
g33
atp337
bsg9
Nstp338
Rp339
a(dp340
g60
(dp341
g62
g313
sg63
(lp342
(dp343
g66
g67
(I0
I1
I1
tp344
Rp345
sg70
g326
sasstp346
bsg72
g73
sg9
Nsbag1
(g2
g3
Ntp347
Rp348
(dp349
g7
g8
sg10
g1
(g11
g3
Ntp350
Rp351
((lp352
g15
(g16
(dp353
g18
g19
(g20
(I0
tp354
g22
tp355
Rp356
(I1
(L1L
tp357
g29
I00
(lp358
g33
atp359
bsg9
Nstp360
Rp361
a(lp362
g19
(g20
(I0
tp363
g22
tp364
Rp365
(I1
(L1L
tp366
g44
I00
S'DDDD\x01L\xb5:'
p367
tp368
ba(lp369
g15
(g16
(dp370
g18
g19
(g20
(I0
tp371
g22
tp372
Rp373
(I1
(L1L
tp374
g29
I00
(lp375
g33
atp376
bsg9
Nstp377
Rp378
a(dp379
g60
(dp380
g62
g352
sg63
(lp381
(dp382
g66
g67
(I0
I1
I1
tp383
Rp384
sg70
g365
sasstp385
bsg72
g73
sg9
Nsbag1
(g2
g3
Ntp386
Rp387
(dp388
g7
g8
sg10
g1
(g11
g3
Ntp389
Rp390
((lp391
g15
(g16
(dp392
g18
g19
(g20
(I0
tp393
g22
tp394
Rp395
(I1
(L1L
tp396
g29
I00
(lp397
g33
atp398
bsg9
Nstp399
Rp400
a(lp401
g19
(g20
(I0
tp402
g22
tp403
Rp404
(I1
(L1L
tp405
g44
I00
S'\x19\x19\x19\x19y9\xa9:'
p406
tp407
ba(lp408
g15
(g16
(dp409
g18
g19
(g20
(I0
tp410
g22
tp411
Rp412
(I1
(L1L
tp413
g29
I00
(lp414
g33
atp415
bsg9
Nstp416
Rp417
a(dp418
g60
(dp419
g62
g391
sg63
(lp420
(dp421
g66
g67
(I0
I1
I1
tp422
Rp423
sg70
g404
sasstp424
bsg72
g73
sg9
Nsba.